(dp0
S'Charles Street'
p1
F0.19724547566761164
sS'Lafayette Street'
p2
F0.11125336645497372
sS'Shepard Street'
p3
F0.054676014306573026
sS'Alabama Street'
p4
F0.5635729274234987
sS'Allen Place'
p5
F0.14251278723585029
sS'Hillside Avenue'
p6
F0.15002922910085015
sS'Carmel Street'
p7
F0.16887472744353438
sS'Miller Street'
p8
F0.02583521504994934
sS'West Rock Avenue'
p9
F0.4035378991945516
sS'Compton Street'
p10
F0.09679582922384991
sS'High Street'
p11
F0.3592230780244044
sS'Bailey Street'
p12
F0.3439334385562996
sS'Barclay Street'
p13
F0.226834933680731
sS'Oak Ridge Drive'
p14
F0.09607526252926271
sS'Pequot Street'
p15
F0.02412391921127497
sS'Stevenson Road'
p16
F0.5723197142657205
sS'Springside Avenue'
p17
F0.4417680225932999
sS'Grafton Street'
p18
F0.5334183153225519
sS'Eddy Street'
p19
F0.09993545630767256
sS'Quinnipiac Avenue'
p20
F2.199222747918403
sS'Amity Road'
p21
F0.25470240306502473
sS'Mumford Road'
p22
F0.14099022447651058
sS'Hillside Place'
p23
F0.1789854194154271
sS'Earl Street'
p24
F0.10724842844374669
sS'Maple Street'
p25
F0.7241438522996725
sS'Hemingway Place'
p26
F0.1631045983363025
sS'Raynham Road'
p27
F0.22234888706697378
sS'Daniel Drive'
p28
F0.20798019835455733
sS'Brown Street'
p29
F0.04072797161968262
sS'Brown Place'
p30
F0.029690739540615563
sS'Osborn Street'
p31
F0.021308491069468305
sS'Lynwood Place'
p32
F0.07418891284623197
sS'Tyler Street'
p33
F0.07554134550454535
sS'East Rock Road'
p34
F0.8260158546483516
sS'Tour Avenue'
p35
F0.061501201686888045
sS'Beacon Avenue'
p36
F0.16490360382768143
sS'Cottage Street'
p37
F0.486705911467929
sS'Maplewood Road'
p38
F0.07520791578006163
sS'Cleveland Road'
p39
F0.48580632429993176
sS'Soundview Terrace'
p40
F0.20187781207226785
sS'Adeline Street'
p41
F0.2741505161521652
sS'Seneca Road'
p42
F0.2570470754948978
sS'Pendleton Street'
p43
F0.21912922997634468
sS'Tuttle Street'
p44
F0.1772491250884939
sS'East Shore Parkway'
p45
F0.037055847380932684
sS'Edgewood Avenue'
p46
F3.3035605161833694
sS'Stewart Street'
p47
F0.060855094720849934
sS'1st Avenue'
p48
F0.1381223295793206
sS'Cedar Street'
p49
F0.40328457568164133
sS'Rock Street'
p50
F0.24312529267114352
sS'Winter Street'
p51
F0.11157006411419901
sS'Platt Street'
p52
F0.07717966265418587
sS'Castle Street'
p53
F0.18719486758754328
sS'Burwell Street'
p54
F0.38405007130898966
sS'Eld Street'
p55
F0.18219055790946043
sS'Exchange Street'
p56
F0.9840836460119766
sS'Filmore Street'
p57
F0.18787065021876306
sS'Laurel Road'
p58
F0.16305678727255038
sS'Dyer Street'
p59
F0.7525483076643857
sS'Willow Avenue'
p60
F0.035996821735112004
sS'Chapel Street'
p61
F5.435444011024204
sS'Nash Street'
p62
F0.23730710581770534
sS'Roger White Drive'
p63
F0.3109554547762281
sS'Eagle Street'
p64
F0.2153658563078156
sS'Dean Street'
p65
F0.28980902729237457
sS'Lock Street'
p66
F0.1562987086253787
sS'Edgemere Road'
p67
F0.0647935853552235
sS'Audubon Street'
p68
F0.25785576045868125
sS'Everit Street'
p69
F0.2798884699990153
sS'Long Wharf Drive'
p70
F1.2041589991113177
sS'Davis Street'
p71
F0.13977302941319592
sS'Cedar Hill Avenue'
p72
F0.10988725436342373
sS'Elm Street'
p73
F2.427142297330523
sS'County Street'
p74
F0.2998483662628861
sS'Harding Place'
p75
F0.13556589436117406
sS'Reservoir Street'
p76
F0.034730971887987516
sS'Clinton Place'
p77
F0.11704988726429542
sS'Grand Avenue'
p78
F2.383557284184711
sS'Percival Street'
p79
F0.14959319506718216
sS'Frank Street'
p80
F0.4057515695518362
sS'Oliver Road'
p81
F0.4975068630341493
sS'Eden Street'
p82
F0.10975862746805132
sS'Hilltop Road'
p83
F0.14260863470550064
sS'Del Rio Drive'
p84
F0.15092305515926957
sS'Peat Meadow Road'
p85
F0.34103427092829863
sS'Hawthorne Road'
p86
F0.059329958976917584
sS'Cranston Street'
p87
F0.3765050940491354
sS'Judith Terrace'
p88
F0.20593838483011373
sS'Mountain Road'
p89
F0.22165111878990787
sS'Clark Street'
p90
F0.2561113722692917
sS'Bellevue Road'
p91
F0.31767611370364335
sS'Morse Place'
p92
F0.26784993107949934
sS'Greenwood Street'
p93
F0.12325355576147708
sS'Gilnock Drive'
p94
F0.06931130961873586
sS'Huntington Avenue'
p95
F0.11806653769449765
sS'Lincoln Street'
p96
F0.20747783972032458
sS'Richmond Avenue'
p97
F0.10941239676569907
sS'Diamond Street'
p98
F0.38178972816514917
sS'Division Street'
p99
F0.833503435365666
sS'Marvelwood Drive'
p100
F0.3018278007836899
sS'Ira Street'
p101
F0.04903687768633417
sS'Warren Place'
p102
F0.17871284618560343
sS'Admiral Street'
p103
F0.263734176147414
sS'Fountain Terrace'
p104
F0.1925960985707117
sS'Taylor Avenue'
p105
F0.19941960204919365
sS'Cora Street'
p106
F0.05669135807805305
sS'Walnut Street'
p107
F0.14742151294916617
sS'James Street'
p108
F0.39521278029720347
sS'Mansfield Street'
p109
F0.35607961679427474
sS'Runo Terrace'
p110
F0.07467808710476177
sS'Sargent Drive'
p111
F0.9633776588849008
sS'Summit Street'
p112
F0.2704749528843035
sS'Gem Street'
p113
F0.030504381356808403
sS'Butler Street'
p114
F0.11291043735828539
sS'Ridge Street'
p115
F0.1081250951052632
sS'Woodward Avenue'
p116
F1.0141697207363647
sS'Crescent Street'
p117
F0.845385857839985
sS'West Prospect Street'
p118
F0.06898154331964784
sS'Fairfield Street'
p119
F0.8798248630354828
sS'Ramsdell Place'
p120
F0.04927553216896748
sS'Flint Street'
p121
F0.10094533183398771
sS'Spring Avenue'
p122
F0.6578879733901316
sS'Revere Street'
p123
F0.11535525225270755
sS'Providence Street'
p124
F0.10160902969518344
sS'Doty Place'
p125
F0.10781263191513255
sS'Haven Street'
p126
F0.09599628569582537
sS'Sheldon Terrace'
p127
F0.11848011742485329
sS'Rowe Street'
p128
F0.15007566385937823
sS'Downing Street'
p129
F0.16971957586199274
sS'Irving Street'
p130
F0.2368297860735552
sS'River Street'
p131
F0.6485869191220391
sS'Orchard Street'
p132
F0.7802720540739131
sS'Hallock Street'
p133
F0.20605939183484012
sS'Westerleigh Road'
p134
F0.2838441614794638
sS'Colonial Place'
p135
F0.02997126049234559
sS'View Street'
p136
F0.1120051974085411
sS'Beverly Road'
p137
F0.23122532171180588
sS'Douglass Avenue'
p138
F0.16395972003692236
sS'Wooster Street'
p139
F0.4879288312723836
sS'Willard Street'
p140
F0.526315413036473
sS'Melrose Drive'
p141
F0.1694201153612347
sS'Stuyvesant Avenue'
p142
F0.4115464105204844
sS'Wilson Street'
p143
F0.060191528644216535
sS'Winthrop Avenue'
p144
F0.916598377282359
sS'Warren Street'
p145
F0.06260538076832287
sS'Kneeland Road'
p146
F0.29599363186382494
sS'Ellis Street'
p147
F0.06478854820924121
sS'Wellington Road'
p148
F0.11685735060357068
sS'Ashland Place'
p149
F0.3010778979382446
sS'Hurlburt Street'
p150
F0.1269609732244851
sS'Englewood Drive'
p151
F0.22169094177326892
sS'Russo Terrace'
p152
F0.057855893279644646
sS'Birch Drive'
p153
F0.0767624184478612
sS'Morris Street'
p154
F0.19499662660902978
sS'Water Street'
p155
F1.2694585395237314
sS'Tuttle Drive'
p156
F0.23587520300994297
sS'Linden Street'
p157
F0.5122399107553947
sS'Burr Street'
p158
F0.7100219933331966
sS'Lines Street'
p159
F0.07364153386290287
sS'Judson Avenue'
p160
F0.34390354981925125
sS'Union Avenue'
p161
F0.4045803732364449
sS'Lilac Street'
p162
F0.3101706242539435
sS'Watson Street'
p163
F0.07848997136463715
sS'Hyde Street'
p164
F0.13993775466878003
sS'Huntington Street'
p165
F1.1760899617555707
sS'Lancraft Street'
p166
F0.24636912620019918
sS'Alton Street'
p167
F0.1357114205643025
sS'Pine Rock Avenue'
p168
F0.06609627681836858
sS'Anthony Drive'
p169
F0.03498722304768378
sS'Hemlock Road'
p170
F0.3148510160505695
sS'Russell Street'
p171
F1.1088703120094892
sS'Wall Street'
p172
F0.6197134936573886
sS'Marvel Road'
p173
F0.12767620631721804
sS'Fort Hale Road'
p174
F0.7290797153339663
sS'Field Street'
p175
F0.10501737085412809
sS'Houston Street'
p176
F0.10525266518814512
sS'Ward Street'
p177
F0.19043712035497057
sS'Chamberlain Street'
p178
F0.2173345597445076
sS'Ogden Street'
p179
F0.5072531516547361
sS'Scranton Street'
p180
F0.3139224551738471
sS'Essex Street'
p181
F0.3037137115516447
sS'Genesee Street'
p182
F0.06011930735618534
sS'Massachusetts Avenue'
p183
F0.04969355676963535
sS'Marion Street'
p184
F0.089494730360332
sS'Bristol Street'
p185
F0.36105693013363027
sS'Pope Street'
p186
F0.2720676328329338
sS'Ocean View Street'
p187
F0.11741092624686615
sS'Wallace Street'
p188
F0.16330606719583135
sS'Canal Street'
p189
F0.26300014417625567
sS'Roosevelt Street'
p190
F0.07704105039290636
sS'Ann Street'
p191
F0.15140360047693824
sS'Wilmont Road'
p192
F0.37947814025408927
sS'East Ferry Street'
p193
F0.21412029959196513
sS'Sherland Avenue'
p194
F0.11568441801352
sS'West Hills Road'
p195
F0.0931012011423453
sS'Upson Terrace'
p196
F0.5207902910199661
sS'Ivy Street'
p197
F0.5997862841734123
sS'Mansion Street'
p198
F0.06023448922830004
sS'Bassett Street'
p199
F0.923442978038616
sS'Cart Road'
p200
F0.1270065713011244
sS'Saint John Street'
p201
F0.3004722217214383
sS'South Frontage Road'
p202
F0.7092947383223123
sS'Whittlesey Avenue'
p203
F0.10336891744635834
sS'Bank Street'
p204
F0.11410084982468668
sS'Trumbull Street'
p205
F0.5370371024477218
sS'Vernon Street'
p206
F0.15479995780686565
sS'Norton Parkway'
p207
F0.9471054157731831
sS'Vista Terrace'
p208
F0.1426730771137717
sS'Davenport Avenue'
p209
F0.8852346312762134
sS'Elaine Terrace'
p210
F0.09732321872924325
sS'Derby Avenue'
p211
F0.7614100155454178
sS'Cove Street'
p212
F0.5240122262380671
sS'Young Street'
p213
F0.09236677193581329
sS'Chambers Street'
p214
F0.23992349969697563
sS'Spencer Place'
p215
F0.08066536784633681
sS'Pearl Street'
p216
F0.32098295561058604
sS'Oakley Street'
p217
F0.14212890638416883
sS'Lowin Avenue'
p218
F0.10379050751173315
sS'College Street'
p219
F0.5248558066935534
sS'Academy Street'
p220
F0.03878356703186067
sS'Portland Street'
p221
F0.10418788187066823
sS'Terrace Street'
p222
F0.17562669714989804
sS'Grove Street'
p223
F0.6299575948986579
sS'Johnston Street'
p224
F0.051238623521844474
sS'Salem Street'
p225
F0.06648640487961932
sS'Fournier Street'
p226
F0.2696975089366834
sS'Nelson Street'
p227
F0.1281935922295792
sS'Howard Street'
p228
F0.20660368065273177
sS'Alston Avenue'
p229
F0.24562598211024292
sS'Frances Hunter Drive'
p230
F0.15858027710692743
sS'Townsend Avenue'
p231
F1.2427220664684702
sS'Plymouth Street'
p232
F0.17550699056884944
sS'Dover Street'
p233
F0.34219068784885065
sS'Lawncrest Road'
p234
F0.41093760281382385
sS'Page Street'
p235
F0.11124549705419373
sS'Arch Street'
p236
F0.15256536467812343
sS'Ashmun Street'
p237
F0.30209318192313744
sS'Dodge Avenue'
p238
F0.059058767625913944
sS'Mitchell Drive'
p239
F0.34237396658549163
sS'Orchard Avenue'
p240
F0.08097932017227889
sS'Stimson Road'
p241
F0.1601222696884507
sS'Byron Place'
p242
F0.12031515878642157
sS'Washington Avenue'
p243
F0.8682066874184657
sS'Edwards Street'
p244
F0.9585828482010378
sS'Elliot Street'
p245
F0.12429355589819738
sS'Dickerman Street'
p246
F0.23948174320568627
sS'Alden Avenue'
p247
F0.42433437114976097
sS'Porter Street'
p248
F0.0951061297693939
sS'Harper Avenue'
p249
F0.25554855355237366
sS'Jefferson Street'
p250
F0.05275505837236145
sS'Asylum Street'
p251
F0.0997057875329733
sS'Hedge Street'
p252
F0.025022541441053207
sS'Pardee Place'
p253
F0.03134560275725201
sS'Sea Street'
p254
F0.5185994547210167
sS'Center Street'
p255
F0.10466270592761527
sS'Nicoll Street'
p256
F0.3493866555719363
sS'Goodyear Street'
p257
F0.07923575795901283
sS'Jewell Street'
p258
F0.2488813471372754
sS'Oxford Street'
p259
F0.1812281202424713
sS'Dayton Street'
p260
F0.039506479723376446
sS'Farnham Avenue'
p261
F0.30012066399617054
sS'West Park Avenue'
p262
F0.2851546065824784
sS'Foxon Street'
p263
F0.14836482891114375
sS'Park Avenue'
p264
F0.179527053233752
sS'Autumn Street'
p265
F0.1244106612689273
sS'Dorman Street'
p266
F0.2724491263274823
sS'Emerson Street'
p267
F0.10955422238501501
sS'Clifton Street'
p268
F0.8160521870843724
sS'Morris Avenue'
p269
F0.12364669650852347
sS'Beech Street'
p270
F0.04332094818204557
sS'Eastern Street'
p271
F0.4424630728240607
sS'Rock View Terrace'
p272
F0.10816047085710188
sS'Tower Parkway'
p273
F0.6000186693063894
sS'Wilcox Place'
p274
F0.09690349436226037
sS'Arthur Street'
p275
F0.05786239744005912
sS'Gando Drive'
p276
F0.36898710468931567
sS'Warwick Street'
p277
F0.22633084815864707
sS'York Street'
p278
F0.5168018138418995
sS'John W Murphy Drive'
p279
F0.25241251393281144
sS'Stanley Street'
p280
F0.23785277009748312
sS'Cassius Street'
p281
F0.1461878882927042
sS'Mill Street'
p282
F0.04930479057480478
sS'Ferry Street'
p283
F0.624744238537659
sS'Leroy Terrace'
p284
F0.023009412667355057
sS'University Place'
p285
F0.11048895411130351
sS'Florence Avenue'
p286
F0.17475784794748445
sS'Ley Street'
p287
F0.2839209859490321
sS'Brookside Avenue'
p288
F0.4897232006324653
sS'Munson Street'
p289
F1.0154707721631282
sS'West Elm Street'
p290
F0.7095280950778236
sS'Cooper Place'
p291
F0.27638536757094617
sS'May Street'
p292
F0.09102334217447093
sS'Waterfront Street'
p293
F0.1805361945059251
sS'Stevens Street'
p294
F0.13936389576673047
sS'Plant Street'
p295
F0.10750603494474918
sS'South Street'
p296
F0.03541095551088368
sS'Phillip Street'
p297
F0.1009346252055514
sS'Middletown Avenue'
p298
F2.145740560711857
sS'Lewis Street'
p299
F0.02939262953405758
sS'Townsend Street'
p300
F0.03965890040573857
sS'Ramsdell Street'
p301
F0.29458431532954443
sS'Lighthouse Road'
p302
F0.607674332667128
sS'Laura Street'
p303
F0.14948445174276104
sS'Hobart Street'
p304
F0.2008621500852043
sS'Rosette Street'
p305
F0.6157202118066677
sS'Uriah Street'
p306
F0.09024306951572775
sS'Foote Street'
p307
F0.34983118562878784
sS'Whitney Avenue'
p308
F0.8066341453506873
sS'Sunset Drive'
p309
F0.1691877588682391
sS'Victory Drive'
p310
F0.1596160435471589
sS'Emily Road'
p311
F0.2318817543162756
sS'East Street'
p312
F0.38558399053880876
sS'Barnes Avenue'
p313
F0.44878879512502784
sS'Richard Street'
p314
F0.0285972745810859
sS'Limerick Street'
p315
F0.11179702328796257
sS'Court Street'
p316
F0.4445741786298322
sS'Read Street'
p317
F0.4803008879127134
sS'English Street'
p318
F0.3424197888168704
sS'Olive Street'
p319
F0.2671775652732265
sS'West Street'
p320
F0.3909942452943474
sS'Osborn Avenue'
p321
F0.35926677432101034
sS'Atwater Street'
p322
F0.24313669377536504
sS'Baldwin Street'
p323
F0.10433208112676383
sS'Grace Street'
p324
F0.11128828389335363
sS'Pond Lily Avenue'
p325
F0.39738041771860644
sS'Valley Street'
p326
F1.046821178856678
sS'Bishop Street'
p327
F0.5936030924077824
sS'Shelter Street'
p328
F0.037590029176060864
sS'Rock Creek Road'
p329
F0.39921819073112425
sS'East Pearl Street'
p330
F0.1705197393800624
sS'Concord Street'
p331
F0.4973774315054536
sS'White Street'
p332
F0.1377637829697964
sS'Fountain Street'
p333
F2.2391090792379447
sS'Blatchley Avenue'
p334
F0.38110827667095715
sS'New Street'
p335
F0.06881048436130797
sS'Wright Avenue'
p336
F0.1820278939508383
sS'Assumption Street'
p337
F0.138694710504347
sS'South Genesee Street'
p338
F0.16285258638227756
sS'Foxon Hill Road'
p339
F0.34122558698928535
sS'Auburn Street'
p340
F0.06905647650243518
sS'South End Road'
p341
F0.18121546166119815
sS'Girard Avenue'
p342
F0.36676464253020186
sS'Amistad Street'
p343
F0.22656778602652894
sS'Hazel Street'
p344
F0.5753379908923297
sS'Kensington Street'
p345
F0.12977471108978722
sS'Mead Street'
p346
F0.06823767191911678
sS'Gold Street'
p347
F0.07144832474662366
sS'Tilton Street'
p348
F0.16080274377902357
sS'Goffe Street'
p349
F0.7187398777196267
sS'Front Street'
p350
F0.8335742985003072
sS'Stiles Street'
p351
F0.15564122394413404
sS'Gilbert Avenue'
p352
F0.4632151752816078
sS'Ives Place'
p353
F0.2664625721918805
sS'Greene Street'
p354
F0.31625794185243555
sS'Ellsworth Avenue'
p355
F0.7660805701464376
sS'Harrison Street'
p356
F0.09206786382984072
sS'Loop Road'
p357
F0.019881394221852033
sS'Portsea Street'
p358
F0.44912654068651015
sS'Lenox Street'
p359
F0.43958431220467636
sS'Cove Place'
p360
F0.011406896359715146
sS'Clifford Terrace'
p361
F0.17985956193696442
sS'Hopkins Drive'
p362
F0.04051783193499021
sS'Onyx Street'
p363
F0.06490405381104766
sS'Morris Cove Road'
p364
F0.05509627264919795
sS'West Division Street'
p365
F0.12047065740434644
sS'Albert Street'
p366
F0.140328681039678
sS'Westwood Road'
p367
F0.48336345670726844
sS'Anita Street'
p368
F0.2326573272866298
sS'Roydon Road'
p369
F0.16861892040754628
sS'4th Street'
p370
F0.1878715447087615
sS'Market Street'
p371
F0.34742264990800387
sS'Burns Street'
p372
F0.10786429732704288
sS'Avon Street'
p373
F0.32366772473283967
sS'King Place'
p374
F0.06959485520610646
sS'Lombard Street'
p375
F1.165063921835878
sS'Brownell Street'
p376
F0.1814069668433263
sS'Hard Street'
p377
F0.13070716904304977
sS'Hine Place'
p378
F0.09738936974647078
sS'Artizan Street'
p379
F0.06505579125915358
sS'Goodwin Street'
p380
F0.17535894635619312
sS'Ray Road'
p381
F0.40091010169735963
sS'Carroll Street'
p382
F0.06396549805413342
sS'Main Street'
p383
F0.09273963998586879
sS'Dell Drive'
p384
F0.08883144771356372
sS'Palmieri Avenue'
p385
F0.111795809116645
sS'Eldert Street'
p386
F0.18949563315308227
sS'Pine Rock Road'
p387
F0.10471566106556238
sS'Chester Street'
p388
F0.2551335076058205
sS'Welcome Street'
p389
F0.09172254167315146
sS'Forest Road'
p390
F0.4080281024658212
sS'Hall Street'
p391
F0.4851018231190444
sS'Townsend Terrace'
p392
F0.4158746214615643
sS'Waverly Street'
p393
F0.04794844067890103
sS'Elizabeth Street'
p394
F0.26591318738409403
sS'Sylvan Avenue'
p395
F0.6251385199952327
sS'Connecticut Avenue'
p396
F0.18135558471925103
sS'Stone Street'
p397
F0.07311213205953458
sS'Pierpont Street'
p398
F0.3100684792465607
sS'Westminster Street'
p399
F0.24703249424523982
sS'East Ramsdell Street'
p400
F0.28375642825285863
sS'Kimberly Avenue'
p401
F0.39588404180937875
sS'Prospect Avenue'
p402
F0.05171340837434085
sS'Long Hill Terrace'
p403
F0.13643914153097503
sS'Parker Place'
p404
F0.25348933923602
sS'Yale Avenue'
p405
F0.5358265748147377
sS'West Read Street'
p406
F0.14055269864087958
sS'Mill River Street'
p407
F0.07655502496157009
sS'Barnett Street'
p408
F0.13850540821348684
sS'Knollwood Drive'
p409
F0.29370088807611255
sS'Norwood Road'
p410
F0.1023418146634061
sS'Brewery Street'
p411
F0.5817975429529771
sS'Shelton Avenue'
p412
F0.37565703109598764
sS'Wolcott Street'
p413
F0.6762546508908476
sS'Glen Haven Road'
p414
F0.5043347154338191
sS'Pardee Street'
p415
F0.07573837825432474
sS'Marlin Drive'
p416
F0.07983124632636658
sS'Liberty Street'
p417
F0.14785018406813596
sS'Prospect Street'
p418
F0.617315397792426
sS'Fulton Terrace'
p419
F0.1947799649385063
sS'Huntington Road'
p420
F0.0903317204056163
sS'Columbus Avenue'
p421
F1.354317880470777
sS'Bright Street'
p422
F0.08283623839245707
sS'West Hazel Street'
p423
F0.1914354529590807
sS'Pawtucket Street'
p424
F0.12975209269117605
sS'Orange Street'
p425
F1.3438577706614987
sS'Cliff Street'
p426
F0.36730071134624365
sS'Smith Avenue'
p427
F0.381822223377221
sS'Shoreham Road'
p428
F0.1030788573617655
sS'Kendall Street'
p429
F0.33448713777658023
sS'Shepard Avenue'
p430
F0.17945530020001982
sS'Temple Street'
p431
F0.6225582128059837
sS'Thorn Street'
p432
F0.1245535274040785
sS'Poplar Street'
p433
F0.32086107113712387
sS'Henry Street'
p434
F0.6402459177499092
sS'State Street'
p435
F2.083891963814012
sS'Truman Street'
p436
F0.26010542599848835
sS'Austin Street'
p437
F0.09698785872035715
sS'Tolli Terrace'
p438
F0.12161621881996071
sS'Hotchkiss Street'
p439
F0.06343578327188648
sS'Ruby Street'
p440
F0.11558552883710685
sS'Level Street'
p441
F0.05607109359757767
sS'Whalley Avenue'
p442
F3.2421710992752266
sS'Hughes Place'
p443
F0.02270450028850417
sS'Brewster Street'
p444
F0.23376334329668547
sS'Maltby Street'
p445
F0.1048277773175306
sS'Glen Road'
p446
F0.5973036968976988
sS'George Street'
p447
F1.7822302975869917
sS'Chestnut Street'
p448
F0.06454341740594721
sS'2nd Street'
p449
F0.29289566076592427
sS'Willis Street'
p450
F0.31383449756511594
sS'Park Street'
p451
F0.4136400093756181
sS'Dewitt Street'
p452
F0.1568888533370389
sS'Crofton Street'
p453
F0.17446486500614017
sS'Winchester Avenue'
p454
F0.593969411789179
sS'Wooster Place'
p455
F0.03897942902562713
sS'Carlisle Street'
p456
F0.33220393139320553
sS'Wintergreen Avenue'
p457
F1.3949121019031638
sS'West Ivy Street'
p458
F0.19137148783129107
sS'Gibbs Street'
p459
F0.21784615339506913
sS'Lake Place'
p460
F0.25040822802521523
sS'Cross Street'
p461
F0.11116598558528198
sS'5th Street'
p462
F0.1889375888190093
sS'Old Foxon Road'
p463
F0.052401778523860104
sS'Meadow View Road'
p464
F0.3738437856265995
sS'Leila Street'
p465
F0.09538738863976937
sS'Lakeview Terrace'
p466
F0.16003881236973247
sS'Peck Street'
p467
F1.0892965833475676
sS'Moreland Road'
p468
F0.37254854122985503
sS'Pine Street'
p469
F0.8963489955249189
sS'Cold Spring Street'
p470
F0.41477715981126895
sS'Lamberton Street'
p471
F0.6990804281153663
sS'Woodland Street'
p472
F0.13311026664250425
sS'Button Street'
p473
F0.1170219009208439
sS'Newhall Street'
p474
F0.24547466388141634
sS'Elmwood Road'
p475
F0.22588828999512314
sS'Garden Street'
p476
F0.053901008695228875
sS'Fowler Street'
p477
F0.2711998316390012
sS'Sachem Street'
p478
F0.42510187556905193
sS'William Street'
p479
F0.23648189227207705
sS'Kenny Drive'
p480
F0.3701722224320515
sS'Donna Drive'
p481
F0.1401044328249968
sS'Farren Avenue'
p482
F0.15706496373914444
sS'Kossuth Street'
p483
F0.10160348269235228
sS'6th Street'
p484
F0.1880306525397595
sS'Highland Street'
p485
F0.794952258099678
sS'Howe Street'
p486
F0.3566301757278877
sS'Clover Place'
p487
F0.13545098391216845
sS'Daisy Street'
p488
F0.18747289880796336
sS'Wayfarer Street'
p489
F0.3838217118083179
sS'Thompson Street'
p490
F0.5397572468015777
sS'Glenview Terrace'
p491
F0.35085372308834384
sS'Beecher Place'
p492
F0.14488962049070886
sS'Rosewood Avenue'
p493
F0.11204879940749413
sS'Harrington Avenue'
p494
F0.15447681107836947
sS'Loomis Place'
p495
F0.09332254318123155
sS'Hudson Street'
p496
F0.1421978705373393
sS'Woodbridge Avenue'
p497
F0.2858210296340508
sS'Bradley Street'
p498
F0.41085442739515815
sS'Horsley Avenue'
p499
F0.043022014835011474
sS'Lander Street'
p500
F0.14657091744032122
sS'Hubinger Street'
p501
F0.1885759440695825
sS'Batter Terrace'
p502
F0.04006104093526264
sS'North Bank Street'
p503
F0.0727502974365092
sS'Anderson Street'
p504
F0.14295002143640353
sS'Monroe Street'
p505
F0.2076275859631774
sS'Putnam Street'
p506
F0.4254056625850727
sS'Norton Street'
p507
F0.4402139633391048
sS'Franklin Street'
p508
F0.26330924609660034
sS'Grant Street'
p509
F0.210327875976502
sS'Lighthouse Point Terrace'
p510
F0.0800616820262861
sS'Saint Ronan Street'
p511
F0.2629209508073925
sS'Argonne Street'
p512
F0.10817504869294862
sS'Whittier Road'
p513
F0.287626260195623
sS'Arden Street'
p514
F0.12063800905644623
sS'Vine Street'
p515
F0.04236497985164366
sS'Forbes Avenue'
p516
F1.6421497215987961
sS'Blake Street'
p517
F0.7814490596670818
sS'Chatham Street'
p518
F0.769621908603336
sS'Chamberlain Place'
p519
F0.07482972515383221
sS'Strong Street'
p520
F0.10128117925424589
sS'Goffe Terrace'
p521
F0.6671231922830291
sS'Curtis Drive'
p522
F0.454537491725488
sS'Clay Street'
p523
F0.6344900802690577
sS'Minor Street'
p524
F0.1664456615893589
sS'Crown Street'
p525
F0.8820236212387018
sS'Kingswood Drive'
p526
F0.16009694607129668
sS'Humphrey Street'
p527
F1.2195501944597436
sS'Wheeler Street'
p528
F0.1791556342950898
sS'Beers Street'
p529
F0.13688744230657965
sS'Clarendon Street'
p530
F0.20587334634414017
sS'Dixwell Avenue'
p531
F0.5712312822550971
sS'Burton Street'
p532
F0.17301496508291886
sS'Gilbert Street'
p533
F0.11703669464572063
sS'Hallock Avenue'
p534
F0.206384793979023
sS'Frederick Street'
p535
F0.25070439389645505
sS'Legion Avenue'
p536
F1.044850677674863
sS'Greenwich Avenue'
p537
F0.22190635147628554
sS'Meadow Street'
p538
F0.04004688588416032
sS'John Williamson Drive'
p539
F0.08974772942744913
sS'Milton Street'
p540
F0.16175825612125663
sS'Maltby Place'
p541
F0.037719979604636814
sS'Ford Street'
p542
F0.16258866226284324
sS'Robertson Street'
p543
F0.09355060626018288
sS'Central Avenue'
p544
F0.5284654271911297
sS'Fox Street'
p545
F0.10675335553435224
sS'Fitch Street'
p546
F1.1421637675514482
sS'Starr Street'
p547
F0.7016030678777457
sS'1st Street'
p548
F0.23462296839105073
sS'Rock Hill Road'
p549
F0.09010471307228685
sS'Saltonstall Avenue'
p550
F0.6818528189972652
sS'Day Street'
p551
F0.14968545008273088
sS'North Frontage Road'
p552
F0.457429881644533
sS'South Water Street'
p553
F0.2730206834967846
sS'Orange Avenue'
p554
F0.1065050998852327
sS'Elmer Street'
p555
F0.1336955672306447
sS'Pitkin Street'
p556
F0.024477584332159165
sS'Elizabeth Ann Drive'
p557
F0.1394110037644929
sS'Parkside Drive'
p558
F0.20595104575423337
sS'Canner Street'
p559
F1.0660989736038273
sS'Sperry Street'
p560
F0.06344869536347288
sS'Fair Street'
p561
F0.25551481377538876
sS'Daggett Street'
p562
F0.17123159921691283
sS'Edgehill Road'
p563
F0.12944314910920202
sS'Woodside Terrace'
p564
F0.049307365453086074
sS'Green Hill Terrace'
p565
F0.21740928546335705
sS'Hervey Street'
p566
F0.24091622212841873
sS'Aner Street'
p567
F0.18347461239636798
sS'Redfield Street'
p568
F0.12297508766892354
sS'Cabot Street'
p569
F0.0918248627403688
sS'Irvington Street'
p570
F0.31371604873259895
sS'Kohary Drive'
p571
F0.2739793333860653
sS'Constance Street'
p572
F0.058754323524785566
sS'Pleasant Street'
p573
F0.08622631493983593
sS'Fiore Street'
p574
F0.08968592761162533
sS'South Orange Street'
p575
F0.13283156853589623
sS'Benton Street'
p576
F0.07233536565415717
sS'Judwin Avenue'
p577
F0.5927162392100146
sS'Lloyd Street'
p578
F0.2019659363409148
sS'Foster Street'
p579
F0.36273319074724153
sS'Mechanic Street'
p580
F0.19814104827627937
sS'East Grand Avenue'
p581
F0.6515628298560004
sS'Marin Road'
p582
F0.0482321402872364
sS'Weybosset Street'
p583
F0.5705583789479204
sS'Dwight Street'
p584
F0.38095121046610475
sS'Cave Street'
p585
F0.15278354047387438
sS'Church Street'
p586
F0.637480291310187
sS'Orchard Place'
p587
F0.14192225920375887
sS'Sherman Avenue'
p588
F1.0725859018961854
sS'Welton Street'
p589
F0.10939907293993582
sS'Hillhouse Avenue'
p590
F0.15253450394641474
sS'Howard Avenue'
p591
F0.751880561194124
sS'Fairmont Avenue'
p592
F0.2844030139579769
sS'Downes Street'
p593
F0.03782310658609497
sS'Perkins Street'
p594
F0.07894818464385069
sS'Webster Street'
p595
F0.5700411888896391
sS'Sheffield Avenue'
p596
F0.18775859730346572
sS'Parmelee Avenue'
p597
F0.3564732405877878
sS'Anthony Street'
p598
F0.15320718566856775
sS'Fulton Street'
p599
F0.46297755979591604
sS'Alfred Street'
p600
F0.13229266894204333
sS'Lexington Avenue'
p601
F0.5997139551095942
sS'Woolsey Street'
p602
F0.4261200736283416
sS'Conrad Drive'
p603
F0.723552990344489
sS'Willow Street'
p604
F1.0796406661188995
sS'Livingston Street'
p605
F0.5061122064255548
sS'Edgar Street'
p606
F0.036857629861712385
sS'Colony Road'
p607
F0.30821921338309965
sS'Lyon Street'
p608
F0.27975676494343904
sS'Clinton Avenue'
p609
F0.3225834062336465
sS'Union Street'
p610
F0.1261527037189711
sS'Lawrence Street'
p611
F0.8191651886101224
sS'Alden Street'
p612
F0.10477004222696032
sS'Myron Street'
p613
F0.3229275631314654
sS'Pond Street'
p614
F0.26646869978467347
sS'Congress Avenue'
p615
F1.3044576564095565
sS'Hemingway Street'
p616
F0.4424295996939174
sS'Hamilton Street'
p617
F0.22573080254976527
s.